target datalayout = "e-m:e-p270:32:32-p271:32:32-p272:64:64-i64:64-i128:128-f80:128-n8:16:32:64-S128"
target triple = "x86_64-pc-linux-gnu"

%struct.mi_stats_s = type { %struct.mi_stat_count_s, %struct.mi_stat_count_s, %struct.mi_stat_count_s, %struct.mi_stat_count_s, %struct.mi_stat_count_s, %struct.mi_stat_count_s, %struct.mi_stat_count_s, %struct.mi_stat_count_s, %struct.mi_stat_count_s, %struct.mi_stat_count_s, %struct.mi_stat_count_s, %struct.mi_stat_count_s, %struct.mi_stat_count_s, %struct.mi_stat_count_s, %struct.mi_stat_count_s, %struct.mi_stat_counter_s, %struct.mi_stat_counter_s, %struct.mi_stat_counter_s, %struct.mi_stat_counter_s, %struct.mi_stat_counter_s, %struct.mi_stat_counter_s, %struct.mi_stat_counter_s, %struct.mi_stat_counter_s, %struct.mi_stat_counter_s, %struct.mi_stat_counter_s, %struct.mi_stat_counter_s, %struct.mi_stat_counter_s, %struct.mi_stat_counter_s, %struct.mi_stat_counter_s }
%struct.mi_stat_count_s = type { i64, i64, i64, i64 }
%struct.mi_stat_counter_s = type { i64, i64 }
%struct.mi_process_info_s = type { i64, i64, i64, i64, i64, i64, i64, i64 }

@_mi_stats_main = external global %struct.mi_stats_s, align 64
@mi_process_start = internal global i64 0, align 8
@mi_clock_diff = internal global i64 0, align 8

; Function Attrs: nounwind uwtable
define hidden i64 @_mi_clock_now() #0 {
  %1 = call i64 @_mi_prim_clock_now() #6
  ret i64 %1
}

; Function Attrs: nounwind uwtable
define hidden i64 @_mi_clock_end(i64 noundef %0) #0 {
  %2 = alloca i64, align 8
  %3 = alloca i64, align 8
  store i64 %0, ptr %2, align 8, !tbaa !8
  call void @llvm.lifetime.start.p0(i64 8, ptr %3) #7
  %4 = call i64 @_mi_clock_now() #6
  store i64 %4, ptr %3, align 8, !tbaa !8
  %5 = load i64, ptr %3, align 8, !tbaa !8
  %6 = load i64, ptr %2, align 8, !tbaa !8
  %7 = sub nsw i64 %5, %6
  %8 = load i64, ptr @mi_clock_diff, align 8, !tbaa !8
  %9 = sub nsw i64 %7, %8
  call void @llvm.lifetime.end.p0(i64 8, ptr %3) #7
  ret i64 %9
}

; Function Attrs: nounwind uwtable
define hidden void @mi_process_info(ptr noundef %0, ptr noundef %1, ptr noundef %2, ptr noundef %3, ptr noundef %4, ptr noundef %5, ptr noundef %6, ptr noundef %7) #0 {
  %9 = alloca ptr, align 8
  %10 = alloca ptr, align 8
  %11 = alloca ptr, align 8
  %12 = alloca ptr, align 8
  %13 = alloca ptr, align 8
  %14 = alloca ptr, align 8
  %15 = alloca ptr, align 8
  %16 = alloca ptr, align 8
  %17 = alloca %struct.mi_process_info_s, align 8
  %18 = alloca i64, align 8
  %19 = alloca i64, align 8
  store ptr %0, ptr %9, align 8, !tbaa !14
  store ptr %1, ptr %10, align 8, !tbaa !14
  store ptr %2, ptr %11, align 8, !tbaa !14
  store ptr %3, ptr %12, align 8, !tbaa !14
  store ptr %4, ptr %13, align 8, !tbaa !14
  store ptr %5, ptr %14, align 8, !tbaa !14
  store ptr %6, ptr %15, align 8, !tbaa !14
  store ptr %7, ptr %16, align 8, !tbaa !14
  call void @llvm.lifetime.start.p0(i64 64, ptr %17) #7
  call void @llvm.memset.p0.i64(ptr align 8 %17, i8 0, i64 64, i1 false)
  %20 = load i64, ptr @mi_process_start, align 8, !tbaa !8
  %21 = call i64 @_mi_clock_end(i64 noundef %20) #6
  %22 = getelementptr inbounds nuw %struct.mi_process_info_s, ptr %17, i32 0, i32 0
  store i64 %21, ptr %22, align 8, !tbaa !40
  %23 = load atomic i64, ptr getelementptr inbounds nuw (%struct.mi_stat_count_s, ptr getelementptr inbounds nuw (%struct.mi_stats_s, ptr @_mi_stats_main, i32 0, i32 3), i32 0, i32 3) monotonic, align 8
  store i64 %23, ptr %18, align 8
  %24 = load i64, ptr %18, align 8, !tbaa !8
  %25 = getelementptr inbounds nuw %struct.mi_process_info_s, ptr %17, i32 0, i32 5
  store i64 %24, ptr %25, align 8, !tbaa !42
  %26 = load atomic i64, ptr getelementptr inbounds nuw (%struct.mi_stat_count_s, ptr getelementptr inbounds nuw (%struct.mi_stats_s, ptr @_mi_stats_main, i32 0, i32 3), i32 0, i32 2) monotonic, align 16
  store i64 %26, ptr %19, align 8
  %27 = load i64, ptr %19, align 8, !tbaa !8
  %28 = getelementptr inbounds nuw %struct.mi_process_info_s, ptr %17, i32 0, i32 6
  store i64 %27, ptr %28, align 8, !tbaa !43
  %29 = getelementptr inbounds nuw %struct.mi_process_info_s, ptr %17, i32 0, i32 5
  %30 = load i64, ptr %29, align 8, !tbaa !42
  %31 = getelementptr inbounds nuw %struct.mi_process_info_s, ptr %17, i32 0, i32 3
  store i64 %30, ptr %31, align 8, !tbaa !44
  %32 = getelementptr inbounds nuw %struct.mi_process_info_s, ptr %17, i32 0, i32 6
  %33 = load i64, ptr %32, align 8, !tbaa !43
  %34 = getelementptr inbounds nuw %struct.mi_process_info_s, ptr %17, i32 0, i32 4
  store i64 %33, ptr %34, align 8, !tbaa !45
  %35 = getelementptr inbounds nuw %struct.mi_process_info_s, ptr %17, i32 0, i32 1
  store i64 0, ptr %35, align 8, !tbaa !46
  %36 = getelementptr inbounds nuw %struct.mi_process_info_s, ptr %17, i32 0, i32 2
  store i64 0, ptr %36, align 8, !tbaa !47
  %37 = getelementptr inbounds nuw %struct.mi_process_info_s, ptr %17, i32 0, i32 7
  store i64 0, ptr %37, align 8, !tbaa !48
  call void @_mi_prim_process_info(ptr noundef %17) #6
  %38 = load ptr, ptr %9, align 8, !tbaa !14
  %39 = icmp ne ptr %38, null
  br i1 %39, label %40, label %58

40:                                               ; preds = %8
  %41 = getelementptr inbounds nuw %struct.mi_process_info_s, ptr %17, i32 0, i32 0
  %42 = load i64, ptr %41, align 8, !tbaa !40
  %43 = icmp slt i64 %42, 0
  br i1 %43, label %44, label %45

44:                                               ; preds = %40
  br label %55

45:                                               ; preds = %40
  %46 = getelementptr inbounds nuw %struct.mi_process_info_s, ptr %17, i32 0, i32 0
  %47 = load i64, ptr %46, align 8, !tbaa !40
  %48 = icmp slt i64 %47, 9223372036854775807
  br i1 %48, label %49, label %52

49:                                               ; preds = %45
  %50 = getelementptr inbounds nuw %struct.mi_process_info_s, ptr %17, i32 0, i32 0
  %51 = load i64, ptr %50, align 8, !tbaa !40
  br label %53

52:                                               ; preds = %45
  br label %53

53:                                               ; preds = %52, %49
  %54 = phi i64 [ %51, %49 ], [ 9223372036854775807, %52 ]
  br label %55

55:                                               ; preds = %53, %44
  %56 = phi i64 [ 0, %44 ], [ %54, %53 ]
  %57 = load ptr, ptr %9, align 8, !tbaa !14
  store i64 %56, ptr %57, align 8, !tbaa !8
  br label %58

58:                                               ; preds = %55, %8
  %59 = load ptr, ptr %10, align 8, !tbaa !14
  %60 = icmp ne ptr %59, null
  br i1 %60, label %61, label %79

61:                                               ; preds = %58
  %62 = getelementptr inbounds nuw %struct.mi_process_info_s, ptr %17, i32 0, i32 1
  %63 = load i64, ptr %62, align 8, !tbaa !46
  %64 = icmp slt i64 %63, 0
  br i1 %64, label %65, label %66

65:                                               ; preds = %61
  br label %76

66:                                               ; preds = %61
  %67 = getelementptr inbounds nuw %struct.mi_process_info_s, ptr %17, i32 0, i32 1
  %68 = load i64, ptr %67, align 8, !tbaa !46
  %69 = icmp slt i64 %68, 9223372036854775807
  br i1 %69, label %70, label %73

70:                                               ; preds = %66
  %71 = getelementptr inbounds nuw %struct.mi_process_info_s, ptr %17, i32 0, i32 1
  %72 = load i64, ptr %71, align 8, !tbaa !46
  br label %74

73:                                               ; preds = %66
  br label %74

74:                                               ; preds = %73, %70
  %75 = phi i64 [ %72, %70 ], [ 9223372036854775807, %73 ]
  br label %76

76:                                               ; preds = %74, %65
  %77 = phi i64 [ 0, %65 ], [ %75, %74 ]
  %78 = load ptr, ptr %10, align 8, !tbaa !14
  store i64 %77, ptr %78, align 8, !tbaa !8
  br label %79

79:                                               ; preds = %76, %58
  %80 = load ptr, ptr %11, align 8, !tbaa !14
  %81 = icmp ne ptr %80, null
  br i1 %81, label %82, label %100

82:                                               ; preds = %79
  %83 = getelementptr inbounds nuw %struct.mi_process_info_s, ptr %17, i32 0, i32 2
  %84 = load i64, ptr %83, align 8, !tbaa !47
  %85 = icmp slt i64 %84, 0
  br i1 %85, label %86, label %87

86:                                               ; preds = %82
  br label %97

87:                                               ; preds = %82
  %88 = getelementptr inbounds nuw %struct.mi_process_info_s, ptr %17, i32 0, i32 2
  %89 = load i64, ptr %88, align 8, !tbaa !47
  %90 = icmp slt i64 %89, 9223372036854775807
  br i1 %90, label %91, label %94

91:                                               ; preds = %87
  %92 = getelementptr inbounds nuw %struct.mi_process_info_s, ptr %17, i32 0, i32 2
  %93 = load i64, ptr %92, align 8, !tbaa !47
  br label %95

94:                                               ; preds = %87
  br label %95

95:                                               ; preds = %94, %91
  %96 = phi i64 [ %93, %91 ], [ 9223372036854775807, %94 ]
  br label %97

97:                                               ; preds = %95, %86
  %98 = phi i64 [ 0, %86 ], [ %96, %95 ]
  %99 = load ptr, ptr %11, align 8, !tbaa !14
  store i64 %98, ptr %99, align 8, !tbaa !8
  br label %100

100:                                              ; preds = %97, %79
  %101 = load ptr, ptr %12, align 8, !tbaa !14
  %102 = icmp ne ptr %101, null
  br i1 %102, label %103, label %107

103:                                              ; preds = %100
  %104 = getelementptr inbounds nuw %struct.mi_process_info_s, ptr %17, i32 0, i32 3
  %105 = load i64, ptr %104, align 8, !tbaa !44
  %106 = load ptr, ptr %12, align 8, !tbaa !14
  store i64 %105, ptr %106, align 8, !tbaa !8
  br label %107

107:                                              ; preds = %103, %100
  %108 = load ptr, ptr %13, align 8, !tbaa !14
  %109 = icmp ne ptr %108, null
  br i1 %109, label %110, label %114

110:                                              ; preds = %107
  %111 = getelementptr inbounds nuw %struct.mi_process_info_s, ptr %17, i32 0, i32 4
  %112 = load i64, ptr %111, align 8, !tbaa !45
  %113 = load ptr, ptr %13, align 8, !tbaa !14
  store i64 %112, ptr %113, align 8, !tbaa !8
  br label %114

114:                                              ; preds = %110, %107
  %115 = load ptr, ptr %14, align 8, !tbaa !14
  %116 = icmp ne ptr %115, null
  br i1 %116, label %117, label %121

117:                                              ; preds = %114
  %118 = getelementptr inbounds nuw %struct.mi_process_info_s, ptr %17, i32 0, i32 5
  %119 = load i64, ptr %118, align 8, !tbaa !42
  %120 = load ptr, ptr %14, align 8, !tbaa !14
  store i64 %119, ptr %120, align 8, !tbaa !8
  br label %121

121:                                              ; preds = %117, %114
  %122 = load ptr, ptr %15, align 8, !tbaa !14
  %123 = icmp ne ptr %122, null
  br i1 %123, label %124, label %128

124:                                              ; preds = %121
  %125 = getelementptr inbounds nuw %struct.mi_process_info_s, ptr %17, i32 0, i32 6
  %126 = load i64, ptr %125, align 8, !tbaa !43
  %127 = load ptr, ptr %15, align 8, !tbaa !14
  store i64 %126, ptr %127, align 8, !tbaa !8
  br label %128

128:                                              ; preds = %124, %121
  %129 = load ptr, ptr %16, align 8, !tbaa !14
  %130 = icmp ne ptr %129, null
  br i1 %130, label %131, label %135

131:                                              ; preds = %128
  %132 = getelementptr inbounds nuw %struct.mi_process_info_s, ptr %17, i32 0, i32 7
  %133 = load i64, ptr %132, align 8, !tbaa !48
  %134 = load ptr, ptr %16, align 8, !tbaa !14
  store i64 %133, ptr %134, align 8, !tbaa !8
  br label %135

135:                                              ; preds = %131, %128
  call void @llvm.lifetime.end.p0(i64 64, ptr %17) #7
  ret void
}